target datalayout = "e-m:e-p270:32:32-p271:32:32-p272:64:64-i64:64-i128:128-f80:128-n8:16:32:64-S128"
target triple = "x86_64-pc-linux-gnu"

; Function Attrs: nounwind uwtable
define internal void @sbr_qmf_pre_shuffle_c(ptr noundef %0) #1 {
  %2 = alloca ptr, align 8
  %3 = alloca i32, align 4
  store ptr %0, ptr %2, align 8, !tbaa !21
  call void @llvm.lifetime.start.p0(i64 4, ptr %3) #8
  %4 = load ptr, ptr %2, align 8, !tbaa !21
  %5 = getelementptr inbounds i32, ptr %4, i64 0
  %6 = load i32, ptr %5, align 4, !tbaa !23
  %7 = load ptr, ptr %2, align 8, !tbaa !21
  %8 = getelementptr inbounds i32, ptr %7, i64 64
  store i32 %6, ptr %8, align 4, !tbaa !23
  %9 = load ptr, ptr %2, align 8, !tbaa !21
  %10 = getelementptr inbounds i32, ptr %9, i64 1
  %11 = load i32, ptr %10, align 4, !tbaa !23
  %12 = load ptr, ptr %2, align 8, !tbaa !21
  %13 = getelementptr inbounds i32, ptr %12, i64 65
  store i32 %11, ptr %13, align 4, !tbaa !23
  store i32 1, ptr %3, align 4, !tbaa !23
  br label %14

14:                                               ; preds = %44, %1
  %15 = load i32, ptr %3, align 4, !tbaa !23
  %16 = icmp slt i32 %15, 32
  br i1 %16, label %17, label %47

17:                                               ; preds = %14
  %18 = load ptr, ptr %2, align 8, !tbaa !21
  %19 = load i32, ptr %3, align 4, !tbaa !23
  %20 = sub nsw i32 64, %19
  %21 = sext i32 %20 to i64
  %22 = getelementptr inbounds i32, ptr %18, i64 %21
  %23 = load i32, ptr %22, align 4, !tbaa !23
  %24 = sub nsw i32 0, %23
  %25 = load ptr, ptr %2, align 8, !tbaa !21
  %26 = load i32, ptr %3, align 4, !tbaa !23
  %27 = mul nsw i32 2, %26
  %28 = add nsw i32 64, %27
  %29 = sext i32 %28 to i64
  %30 = getelementptr inbounds i32, ptr %25, i64 %29
  store i32 %24, ptr %30, align 4, !tbaa !23
  %31 = load ptr, ptr %2, align 8, !tbaa !21
  %32 = load i32, ptr %3, align 4, !tbaa !23
  %33 = add nsw i32 %32, 1
  %34 = sext i32 %33 to i64
  %35 = getelementptr inbounds i32, ptr %31, i64 %34
  %36 = load i32, ptr %35, align 4, !tbaa !23
  %37 = load ptr, ptr %2, align 8, !tbaa !21
  %38 = load i32, ptr %3, align 4, !tbaa !23
  %39 = mul nsw i32 2, %38
  %40 = add nsw i32 64, %39
  %41 = add nsw i32 %40, 1
  %42 = sext i32 %41 to i64
  %43 = getelementptr inbounds i32, ptr %37, i64 %42
  store i32 %36, ptr %43, align 4, !tbaa !23
  br label %44

44:                                               ; preds = %17
  %45 = load i32, ptr %3, align 4, !tbaa !23
  %46 = add nsw i32 %45, 1
  store i32 %46, ptr %3, align 4, !tbaa !23
  br label %14, !llvm.loop !34

47:                                               ; preds = %14
  call void @llvm.lifetime.end.p0(i64 4, ptr %3) #8
  ret void
}