; Function Attrs: nofree norecurse nosync nounwind memory(argmem: readwrite) uwtable
define internal void @sbr_qmf_pre_shuffle_c(ptr noundef captures(none) initializes((256, 264)) %0) #1 {
  %2 = load i32, ptr %0, align 4, !tbaa !19
  %3 = getelementptr inbounds nuw i8, ptr %0, i64 256
  store i32 %2, ptr %3, align 4, !tbaa !19
  %4 = getelementptr inbounds nuw i8, ptr %0, i64 4
  %5 = load i32, ptr %4, align 4, !tbaa !19
  %6 = getelementptr inbounds nuw i8, ptr %0, i64 260
  store i32 %5, ptr %6, align 4, !tbaa !19
  br label %7

7:                                                ; preds = %1, %7
  %indvars.iv = phi i64 [ 1, %1 ], [ %indvars.iv.next, %7 ]
  %8 = sub nuw nsw i64 64, %indvars.iv
  %9 = getelementptr inbounds nuw i32, ptr %0, i64 %8
  %10 = load i32, ptr %9, align 4, !tbaa !19
  %11 = sub nsw i32 0, %10
  %12 = shl nuw nsw i64 %indvars.iv, 1
  %gep = getelementptr inbounds nuw i32, ptr %3, i64 %12
  store i32 %11, ptr %gep, align 4, !tbaa !19
  %indvars.iv.next = add nuw nsw i64 %indvars.iv, 1
  %13 = getelementptr inbounds nuw i32, ptr %0, i64 %indvars.iv.next
  %14 = load i32, ptr %13, align 4, !tbaa !19
  %gep14 = getelementptr inbounds nuw i32, ptr %6, i64 %12
  store i32 %14, ptr %gep14, align 4, !tbaa !19
  %exitcond.not = icmp eq i64 %indvars.iv.next, 32
  br i1 %exitcond.not, label %15, label %7, !llvm.loop !28

15:                                               ; preds = %7
  ret void
}